; Function Attrs: mustprogress nofree norecurse nosync nounwind willreturn memory(none) uwtable
define dso_local noundef range(i32 0, 13) i32 @_ZN4Luau7CodeGen18tmToHostMetamethodEi(i32 noundef %0) local_unnamed_addr #0 {
  %switch.tableidx = add i32 %0, -6
  %2 = icmp ult i32 %switch.tableidx, 13
  br i1 %2, label %switch.lookup, label %4

switch.lookup:                                    ; preds = %1
  %3 = zext nneg i32 %switch.tableidx to i64
  %switch.gep = getelementptr inbounds nuw [13 x i32], ptr @switch.table._ZN4Luau7CodeGen18tmToHostMetamethodEi, i64 0, i64 %3
  %switch.load = load i32, ptr %switch.gep, align 4
  br label %4

4:                                                ; preds = %1, %switch.lookup
  %.0 = phi i32 [ %switch.load, %switch.lookup ], [ 0, %1 ]
  ret i32 %.0
}